-----BEGIN CERTIFICATE-----
MIICNzCCAeGgAwIBAgIBADANBgkqhkiG9w0BAQQFADCBmjELMAkGA1UEBhMCVVMx
EzARBgNVBAgTCkNhbGlmb3JuaWExEDAOBgNVBAcTB09ha2xhbmQxEDAOBgNVBAoT
B05lb3NpZ24xFDASBgNVBAsTC1JhbmRvbSBEZXB0MRwwGgYDVQQDExNub3doZXJl
LmV4YW1wbGUuY29tMR4wHAYJKoZIhvcNAQkBFg9uZW9uQHdlYmRhdi5vcmcwHhcN
MDQxMTA2MTU1NzQ1WhcNMDcwNDI1MTU1NzQ1WjCBmjELMAkGA1UEBhMCVVMxEzAR
BgNVBAgTCkNhbGlmb3JuaWExEDAOBgNVBAcTB09ha2xhbmQxEDAOBgNVBAoTB05l
b3NpZ24xFDASBgNVBAsTC1JhbmRvbSBEZXB0MRwwGgYDVQQDExNub3doZXJlLmV4
YW1wbGUuY29tMR4wHAYJKoZIhvcNAQkBFg9uZW9uQHdlYmRhdi5vcmcwXDANBgkq
hkiG9w0BAQEFAANLADBIAkEAurGk2lKvGFyM3RqAU+yjQNLuUasTz5C9JZ3JqXsr
Nj45Ue2UXYbhCdZL2Cbw5D2WwohEDUCfuaG89NZTRrpeIwIDAQABoxAwDjAMBgNV
HRMEBTADAQH/MA0GCSqGSIb3DQEBBAUAA0EAMiO7fPfCpEnUwbpobocx4NCIwgpt
Ng8Zqh2KfJ8CdFPNLG9vhkFipIjWYiICybFaOIoeYakwkZm1T02r9MVdPA==
-----END CERTIFICATE-----
Certificate:
    Data:
        Version: 3 (0x2)
        Serial Number: 2 (0x2)
        Signature Algorithm: md5WithRSAEncryption
        Issuer: C=US, ST=California, L=Oakland, O=Neosign, OU=Random Dept, CN=nowhere.example.com/emailAddress=neon@webdav.org
        Validity
            Not Before: Nov  6 15:57:45 2004 GMT
            Not After : Apr 25 15:57:45 2007 GMT
        Subject: C=GB, ST=Cambridgeshire, L=Cambridge, O=Neon Hackers Ltd, OU=Neon QA Dept, CN=localhost/emailAddress=neon@webdav.org
        Subject Public Key Info:
            Public Key Algorithm: rsaEncryption
            RSA Public Key: (512 bit)
                Modulus (512 bit):
                    00:f3:45:4e:6c:67:cf:82:59:03:ef:3e:4a:89:c3:
                    d2:a5:a0:48:13:d8:5a:b3:65:1f:51:4f:fa:9b:26:
                    e4:41:99:1a:61:89:1a:f4:83:b2:4e:87:93:2b:ec:
                    b5:da:29:28:5e:74:52:e1:1a:27:6e:b7:22:8a:c0:
                    86:49:9d:18:6d
                Exponent: 65537 (0x10001)
        X509v3 extensions:
            X509v3 Basic Constraints: 
            CA:FALSE
    Signature Algorithm: md5WithRSAEncryption
        ac:ad:d9:47:df:dd:13:49:4e:1b:7f:4f:68:c3:7f:bb:ea:2c:
        73:5e:8a:e8:3a:91:55:69:a0:5b:9f:70:9a:73:0b:85:75:d7:
        da:f4:5f:4e:71:7c:12:28:97:68:64:d8:b1:6d:cc:44:ae:a5:
        5a:49:6d:5b:cf:a0:90:58:2c:3c
-----BEGIN CERTIFICATE-----
MIICOjCCAeSgAwIBAgIBAjANBgkqhkiG9w0BAQQFADCBmjELMAkGA1UEBhMCVVMx
EzARBgNVBAgTCkNhbGlmb3JuaWExEDAOBgNVBAcTB09ha2xhbmQxEDAOBgNVBAoT
B05lb3NpZ24xFDASBgNVBAsTC1JhbmRvbSBEZXB0MRwwGgYDVQQDExNub3doZXJl
LmV4YW1wbGUuY29tMR4wHAYJKoZIhvcNAQkBFg9uZW9uQHdlYmRhdi5vcmcwHhcN
MDQxMTA2MTU1NzQ1WhcNMDcwNDI1MTU1NzQ1WjCBoDELMAkGA1UEBhMCR0IxFzAV
BgNVBAgTDkNhbWJyaWRnZXNoaXJlMRIwEAYDVQQHEwlDYW1icmlkZ2UxGTAXBgNV
BAoTEE5lb24gSGFja2VycyBMdGQxFTATBgNVBAsTDE5lb24gUUEgRGVwdDESMBAG
A1UEAxMJbG9jYWxob3N0MR4wHAYJKoZIhvcNAQkBFg9uZW9uQHdlYmRhdi5vcmcw
XDANBgkqhkiG9w0BAQEFAANLADBIAkEA80VObGfPglkD7z5KicPSpaBIE9has2Uf
UU/6mybkQZkaYYka9IOyToeTK+y12ikoXnRS4RonbrciisCGSZ0YbQIDAQABow0w
CzAJBgNVHRMEAjAAMA0GCSqGSIb3DQEBBAUAA0EArK3ZR9/dE0lOG39PaMN/u+os
c16K6DqRVWmgW59wmnMLhXXX2vRfTnF8EiiXaGTYsW3MRK6lWkltW8+gkFgsPA==
-----END CERTIFICATE-----
