-----BEGIN CERTIFICATE-----
MIICNzCCAeGgAwIBAgIBADANBgkqhkiG9w0BAQQFADCBmjELMAkGA1UEBhMCVVMx
EzARBgNVBAgTCkNhbGlmb3JuaWExEDAOBgNVBAcTB09ha2xhbmQxEDAOBgNVBAoT
B05lb3NpZ24xFDASBgNVBAsTC1JhbmRvbSBEZXB0MRwwGgYDVQQDExNub3doZXJl
LmV4YW1wbGUuY29tMR4wHAYJKoZIhvcNAQkBFg9uZW9uQHdlYmRhdi5vcmcwHhcN
MDQxMTAxMTUwMzEzWhcNMDcwNDIwMTUwMzEzWjCBmjELMAkGA1UEBhMCVVMxEzAR
BgNVBAgTCkNhbGlmb3JuaWExEDAOBgNVBAcTB09ha2xhbmQxEDAOBgNVBAoTB05l
b3NpZ24xFDASBgNVBAsTC1JhbmRvbSBEZXB0MRwwGgYDVQQDExNub3doZXJlLmV4
YW1wbGUuY29tMR4wHAYJKoZIhvcNAQkBFg9uZW9uQHdlYmRhdi5vcmcwXDANBgkq
hkiG9w0BAQEFAANLADBIAkEAulGu4rv1AMHc4Nbf/Nwi9a5Yi4cOM+hpUpkXQ7Bk
uAB2r2xlX5F0bQdlItnOHRsCQ5HSFEVXeIr3OFn998cIiQIDAQABoxAwDjAMBgNV
HRMEBTADAQH/MA0GCSqGSIb3DQEBBAUAA0EAJ4/6DGrb1MNN10RtYVc/gG8mEU64
exTFjqe7lnmkGx/AJJ1oHM+YQ97rQyXppyYSARYO02bWJ3BRWPyy3jt1tg==
-----END CERTIFICATE-----
Certificate:
    Data:
        Version: 3 (0x2)
        Serial Number: 2 (0x2)
        Signature Algorithm: md5WithRSAEncryption
        Issuer: C=US, ST=California, L=Oakland, O=Neosign, OU=Random Dept, CN=nowhere.example.com/emailAddress=neon@webdav.org
        Validity
            Not Before: Nov  1 15:03:13 2004 GMT
            Not After : Apr 20 15:03:13 2007 GMT
        Subject: C=GB, ST=Cambridgeshire, L=Cambridge, O=Neon Hackers Ltd, OU=Neon QA Dept, CN=localhost/emailAddress=neon@webdav.org
        Subject Public Key Info:
            Public Key Algorithm: rsaEncryption
            RSA Public Key: (512 bit)
                Modulus (512 bit):
                    00:f3:45:4e:6c:67:cf:82:59:03:ef:3e:4a:89:c3:
                    d2:a5:a0:48:13:d8:5a:b3:65:1f:51:4f:fa:9b:26:
                    e4:41:99:1a:61:89:1a:f4:83:b2:4e:87:93:2b:ec:
                    b5:da:29:28:5e:74:52:e1:1a:27:6e:b7:22:8a:c0:
                    86:49:9d:18:6d
                Exponent: 65537 (0x10001)
        X509v3 extensions:
            X509v3 Basic Constraints: 
            CA:FALSE
    Signature Algorithm: md5WithRSAEncryption
        47:f4:42:07:69:04:84:cd:c8:e2:92:6a:6c:f2:d6:2c:83:27:
        fd:e1:72:8f:a7:46:90:8f:ce:83:5b:4c:f9:17:a5:dd:2a:cf:
        e6:6f:b8:f4:98:78:f0:d5:ce:80:4a:68:76:2c:7e:24:c7:a2:
        2e:2f:5e:3e:63:6d:8d:c6:ca:ab
-----BEGIN CERTIFICATE-----
MIICOjCCAeSgAwIBAgIBAjANBgkqhkiG9w0BAQQFADCBmjELMAkGA1UEBhMCVVMx
EzARBgNVBAgTCkNhbGlmb3JuaWExEDAOBgNVBAcTB09ha2xhbmQxEDAOBgNVBAoT
B05lb3NpZ24xFDASBgNVBAsTC1JhbmRvbSBEZXB0MRwwGgYDVQQDExNub3doZXJl
LmV4YW1wbGUuY29tMR4wHAYJKoZIhvcNAQkBFg9uZW9uQHdlYmRhdi5vcmcwHhcN
MDQxMTAxMTUwMzEzWhcNMDcwNDIwMTUwMzEzWjCBoDELMAkGA1UEBhMCR0IxFzAV
BgNVBAgTDkNhbWJyaWRnZXNoaXJlMRIwEAYDVQQHEwlDYW1icmlkZ2UxGTAXBgNV
BAoTEE5lb24gSGFja2VycyBMdGQxFTATBgNVBAsTDE5lb24gUUEgRGVwdDESMBAG
A1UEAxMJbG9jYWxob3N0MR4wHAYJKoZIhvcNAQkBFg9uZW9uQHdlYmRhdi5vcmcw
XDANBgkqhkiG9w0BAQEFAANLADBIAkEA80VObGfPglkD7z5KicPSpaBIE9has2Uf
UU/6mybkQZkaYYka9IOyToeTK+y12ikoXnRS4RonbrciisCGSZ0YbQIDAQABow0w
CzAJBgNVHRMEAjAAMA0GCSqGSIb3DQEBBAUAA0EAR/RCB2kEhM3I4pJqbPLWLIMn
/eFyj6dGkI/Og1tM+Rel3SrP5m+49Jh48NXOgEpodix+JMeiLi9ePmNtjcbKqw==
-----END CERTIFICATE-----
