-----BEGIN CERTIFICATE-----
MIICNzCCAeGgAwIBAgIBADANBgkqhkiG9w0BAQQFADCBmjELMAkGA1UEBhMCVVMx
EzARBgNVBAgTCkNhbGlmb3JuaWExEDAOBgNVBAcTB09ha2xhbmQxEDAOBgNVBAoT
B05lb3NpZ24xFDASBgNVBAsTC1JhbmRvbSBEZXB0MRwwGgYDVQQDExNub3doZXJl
LmV4YW1wbGUuY29tMR4wHAYJKoZIhvcNAQkBFg9uZW9uQHdlYmRhdi5vcmcwHhcN
MDQxMDI5MTMxMzQ3WhcNMDcwNDE3MTMxMzQ3WjCBmjELMAkGA1UEBhMCVVMxEzAR
BgNVBAgTCkNhbGlmb3JuaWExEDAOBgNVBAcTB09ha2xhbmQxEDAOBgNVBAoTB05l
b3NpZ24xFDASBgNVBAsTC1JhbmRvbSBEZXB0MRwwGgYDVQQDExNub3doZXJlLmV4
YW1wbGUuY29tMR4wHAYJKoZIhvcNAQkBFg9uZW9uQHdlYmRhdi5vcmcwXDANBgkq
hkiG9w0BAQEFAANLADBIAkEAxZZK/iqR8mWCs0u3A4Vz58fik0B2RpVLF8LFmXuu
XCDNR4bjCwcOJpd+zpHrxb7LKaUYIA9Y3g1i90qylbgJBwIDAQABoxAwDjAMBgNV
HRMEBTADAQH/MA0GCSqGSIb3DQEBBAUAA0EAEGXxwEqcoz3uXP6/7QqmMhxDhrce
xAGgVRXo546dK9XW3/E6HL7vM+euPnsF/Anhjv5PSRG5pLTy2hDE+r/QuQ==
-----END CERTIFICATE-----
Certificate:
    Data:
        Version: 3 (0x2)
        Serial Number: 2 (0x2)
        Signature Algorithm: md5WithRSAEncryption
        Issuer: C=US, ST=California, L=Oakland, O=Neosign, OU=Random Dept, CN=nowhere.example.com/emailAddress=neon@webdav.org
        Validity
            Not Before: Oct 29 13:13:48 2004 GMT
            Not After : Apr 17 13:13:48 2007 GMT
        Subject: C=GB, ST=Cambridgeshire, L=Cambridge, O=Neon Hackers Ltd, OU=Neon QA Dept, CN=localhost/emailAddress=neon@webdav.org
        Subject Public Key Info:
            Public Key Algorithm: rsaEncryption
            RSA Public Key: (512 bit)
                Modulus (512 bit):
                    00:f3:45:4e:6c:67:cf:82:59:03:ef:3e:4a:89:c3:
                    d2:a5:a0:48:13:d8:5a:b3:65:1f:51:4f:fa:9b:26:
                    e4:41:99:1a:61:89:1a:f4:83:b2:4e:87:93:2b:ec:
                    b5:da:29:28:5e:74:52:e1:1a:27:6e:b7:22:8a:c0:
                    86:49:9d:18:6d
                Exponent: 65537 (0x10001)
        X509v3 extensions:
            X509v3 Basic Constraints: 
            CA:FALSE
    Signature Algorithm: md5WithRSAEncryption
        7e:43:47:e7:a6:40:a3:c0:08:ac:79:15:8b:f3:6f:50:5b:27:
        a4:10:8d:61:b8:17:00:95:1e:bf:93:30:d6:19:99:b1:d6:a2:
        ef:25:b4:c8:c0:06:0b:84:05:af:ae:75:f1:01:6a:83:b9:01:
        35:01:11:8f:8b:35:5b:dc:3b:09
-----BEGIN CERTIFICATE-----
MIICOjCCAeSgAwIBAgIBAjANBgkqhkiG9w0BAQQFADCBmjELMAkGA1UEBhMCVVMx
EzARBgNVBAgTCkNhbGlmb3JuaWExEDAOBgNVBAcTB09ha2xhbmQxEDAOBgNVBAoT
B05lb3NpZ24xFDASBgNVBAsTC1JhbmRvbSBEZXB0MRwwGgYDVQQDExNub3doZXJl
LmV4YW1wbGUuY29tMR4wHAYJKoZIhvcNAQkBFg9uZW9uQHdlYmRhdi5vcmcwHhcN
MDQxMDI5MTMxMzQ4WhcNMDcwNDE3MTMxMzQ4WjCBoDELMAkGA1UEBhMCR0IxFzAV
BgNVBAgTDkNhbWJyaWRnZXNoaXJlMRIwEAYDVQQHEwlDYW1icmlkZ2UxGTAXBgNV
BAoTEE5lb24gSGFja2VycyBMdGQxFTATBgNVBAsTDE5lb24gUUEgRGVwdDESMBAG
A1UEAxMJbG9jYWxob3N0MR4wHAYJKoZIhvcNAQkBFg9uZW9uQHdlYmRhdi5vcmcw
XDANBgkqhkiG9w0BAQEFAANLADBIAkEA80VObGfPglkD7z5KicPSpaBIE9has2Uf
UU/6mybkQZkaYYka9IOyToeTK+y12ikoXnRS4RonbrciisCGSZ0YbQIDAQABow0w
CzAJBgNVHRMEAjAAMA0GCSqGSIb3DQEBBAUAA0EAfkNH56ZAo8AIrHkVi/NvUFsn
pBCNYbgXAJUev5Mw1hmZsdai7yW0yMAGC4QFr6518QFqg7kBNQERj4s1W9w7CQ==
-----END CERTIFICATE-----
